; Function Attrs: nounwind uwtable
define internal void @init_thread_destructor(ptr noundef %0) #0 {
  %2 = icmp eq ptr %0, null
  br i1 %2, label %init_thread_stop.exit, label %3

3:                                                ; preds = %1
  %4 = tail call i32 @CRYPTO_THREAD_run_once(ptr noundef nonnull @tevent_register_runonce, ptr noundef nonnull @create_global_tevent_register_ossl_) #2
  %5 = icmp eq i32 %4, 0
  %6 = load i32, ptr @create_global_tevent_register_ossl_ret_, align 4
  %7 = icmp eq i32 %6, 0
  %or.cond.i.not.i = select i1 %5, i1 true, i1 %7
  %8 = load ptr, ptr @glob_tevent_reg, align 8
  %9 = icmp eq ptr %8, null
  %10 = select i1 %or.cond.i.not.i, i1 true, i1 %9
  br i1 %10, label %init_thread_stop.exit, label %11

11:                                               ; preds = %3
  %12 = getelementptr inbounds nuw i8, ptr %8, i64 8
  %13 = load ptr, ptr %12, align 8, !tbaa !3
  %14 = tail call i32 @CRYPTO_THREAD_write_lock(ptr noundef %13) #2
  %.not.i = icmp eq i32 %14, 0
  br i1 %.not.i, label %init_thread_stop.exit, label %15

15:                                               ; preds = %11
  %16 = load ptr, ptr %0, align 8, !tbaa !9
  %.not253144.i = icmp eq ptr %16, null
  br i1 %.not253144.i, label %.outer._crit_edge.i, label %.lr.ph.split.us.split.us.i

.lr.ph.split.us.split.us.i:                       ; preds = %15, %.lr.ph.split.us.split.us.i
  %.032.us.us.i = phi ptr [ %22, %.lr.ph.split.us.split.us.i ], [ %16, %15 ]
  %17 = getelementptr inbounds nuw i8, ptr %.032.us.us.i, i64 16
  %18 = load ptr, ptr %17, align 8, !tbaa !11
  %19 = getelementptr inbounds nuw i8, ptr %.032.us.us.i, i64 8
  %20 = load ptr, ptr %19, align 8, !tbaa !13
  tail call void %18(ptr noundef %20) #2
  %21 = getelementptr inbounds nuw i8, ptr %.032.us.us.i, i64 24
  %22 = load ptr, ptr %21, align 8, !tbaa !14
  store ptr %22, ptr %0, align 8, !tbaa !9
  tail call void @CRYPTO_free(ptr noundef nonnull %.032.us.us.i, ptr noundef nonnull @.str, i32 noundef 360) #2
  %.not25.us.us.i = icmp eq ptr %22, null
  br i1 %.not25.us.us.i, label %.outer._crit_edge.i, label %.lr.ph.split.us.split.us.i, !llvm.loop !15

.outer._crit_edge.i:                              ; preds = %.lr.ph.split.us.split.us.i, %15
  %23 = load ptr, ptr %12, align 8, !tbaa !3
  %24 = tail call i32 @CRYPTO_THREAD_unlock(ptr noundef %23) #2
  br label %init_thread_stop.exit

init_thread_stop.exit:                            ; preds = %1, %3, %11, %.outer._crit_edge.i
  tail call fastcc void @init_thread_remove_handlers(ptr noundef %0)
  tail call void @CRYPTO_free(ptr noundef %0, ptr noundef nonnull @.str, i32 noundef 199) #2
  ret void
}